target datalayout = "e-m:e-p270:32:32-p271:32:32-p272:64:64-i64:64-i128:128-f80:128-n8:16:32:64-S128"
target triple = "x86_64-pc-linux-gnu"

%"class.std::optional" = type { %"struct.std::_Optional_base" }
%"struct.std::_Optional_base" = type { %"struct.std::_Optional_payload" }
%"struct.std::_Optional_payload" = type { %"struct.std::_Optional_payload_base.base", [3 x i8] }
%"struct.std::_Optional_payload_base.base" = type <{ %"union.std::_Optional_payload_base<unsigned int>::_Storage", i8 }>
%"union.std::_Optional_payload_base<unsigned int>::_Storage" = type { i32 }
%"struct.clang::TransferrableTargetInfo" = type <{ i8, i8, i8, i8, i8, i8, i8, i8, i8, i8, i8, i8, i8, i8, i8, i8, i8, i8, i8, i8, i8, i8, i8, i8, i8, [3 x i8], %"class.std::optional", i8, i8, i8, i8, i8, i8, i8, i8, i8, i8, i8, i8, i8, i8, i8, i8, i8, i8, i16, i16, [2 x i8], i32, i32, [4 x i8], ptr, ptr, ptr, ptr, ptr, ptr, ptr, i32, i32, i32, i32, i32, i32, i32, i32, i32, i32, i32, i32, i8, [3 x i8], i32, i32, [4 x i8] }>

; Function Attrs: mustprogress nounwind uwtable
define linkonce_odr hidden noundef i32 @_ZNK5clang10TargetInfo16getLongLongWidthEv(ptr noundef nonnull align 8 dereferenceable(489) %0) #0 comdat align 2 {
  %2 = alloca ptr, align 8
  store ptr %0, ptr %2, align 8
  %3 = load ptr, ptr %2, align 8
  %4 = getelementptr inbounds i8, ptr %3, i64 8
  %5 = getelementptr inbounds nuw %"struct.clang::TransferrableTargetInfo", ptr %4, i32 0, i32 22
  %6 = load i8, ptr %5, align 2
  %7 = zext i8 %6 to i32
  ret i32 %7
}

; Function Attrs: mustprogress nounwind uwtable
define linkonce_odr hidden noundef i32 @_ZNK5clang10TargetInfo12getLongWidthEv(ptr noundef nonnull align 8 dereferenceable(489) %0) #0 comdat align 2 {
  %2 = alloca ptr, align 8
  store ptr %0, ptr %2, align 8
  %3 = load ptr, ptr %2, align 8
  %4 = getelementptr inbounds i8, ptr %3, i64 8
  %5 = getelementptr inbounds nuw %"struct.clang::TransferrableTargetInfo", ptr %4, i32 0, i32 20
  %6 = load i8, ptr %5, align 4
  %7 = zext i8 %6 to i32
  ret i32 %7
}

; Function Attrs: mustprogress nounwind uwtable
define linkonce_odr hidden noundef i32 @_ZNK5clang10TargetInfo11getIntWidthEv(ptr noundef nonnull align 8 dereferenceable(489) %0) #0 comdat align 2 {
  %2 = alloca ptr, align 8
  store ptr %0, ptr %2, align 8
  %3 = load ptr, ptr %2, align 8
  %4 = getelementptr inbounds i8, ptr %3, i64 8
  %5 = getelementptr inbounds nuw %"struct.clang::TransferrableTargetInfo", ptr %4, i32 0, i32 4
  %6 = load i8, ptr %5, align 4
  %7 = zext i8 %6 to i32
  ret i32 %7
}

; Function Attrs: mustprogress nounwind uwtable
define linkonce_odr hidden noundef i32 @_ZNK5clang10TargetInfo13getShortWidthEv(ptr noundef nonnull align 8 dereferenceable(489) %0) #0 comdat align 2 {
  %2 = alloca ptr, align 8
  store ptr %0, ptr %2, align 8
  ret i32 16
}

; Function Attrs: mustprogress nounwind uwtable
define linkonce_odr hidden noundef i32 @_ZNK5clang10TargetInfo12getCharWidthEv(ptr noundef nonnull align 8 dereferenceable(489) %0) #0 comdat align 2 {
  %2 = alloca ptr, align 8
  store ptr %0, ptr %2, align 8
  ret i32 8
}

; Function Attrs: mustprogress nounwind uwtable
define dso_local noundef i32 @_ZNK5clang10TargetInfo12getTypeWidthENS_23TransferrableTargetInfo7IntTypeE(ptr noundef nonnull align 8 dereferenceable(489) %0, i32 noundef %1) #0 align 2 {
  %3 = alloca i32, align 4
  %4 = alloca ptr, align 8
  %5 = alloca i32, align 4
  store ptr %0, ptr %4, align 8
  store i32 %1, ptr %5, align 4
  %6 = load ptr, ptr %4, align 8
  %7 = load i32, ptr %5, align 4
  switch i32 %7, label %8 [
    i32 1, label %9
    i32 2, label %9
    i32 3, label %11
    i32 4, label %11
    i32 5, label %13
    i32 6, label %13
    i32 7, label %15
    i32 8, label %15
    i32 9, label %17
    i32 10, label %17
  ]

8:                                                ; preds = %2
  unreachable

9:                                                ; preds = %2, %2
  %10 = call noundef i32 @_ZNK5clang10TargetInfo12getCharWidthEv(ptr noundef nonnull align 8 dereferenceable(489) %6)
  store i32 %10, ptr %3, align 4
  br label %19

11:                                               ; preds = %2, %2
  %12 = call noundef i32 @_ZNK5clang10TargetInfo13getShortWidthEv(ptr noundef nonnull align 8 dereferenceable(489) %6)
  store i32 %12, ptr %3, align 4
  br label %19

13:                                               ; preds = %2, %2
  %14 = call noundef i32 @_ZNK5clang10TargetInfo11getIntWidthEv(ptr noundef nonnull align 8 dereferenceable(489) %6)
  store i32 %14, ptr %3, align 4
  br label %19

15:                                               ; preds = %2, %2
  %16 = call noundef i32 @_ZNK5clang10TargetInfo12getLongWidthEv(ptr noundef nonnull align 8 dereferenceable(489) %6)
  store i32 %16, ptr %3, align 4
  br label %19

17:                                               ; preds = %2, %2
  %18 = call noundef i32 @_ZNK5clang10TargetInfo16getLongLongWidthEv(ptr noundef nonnull align 8 dereferenceable(489) %6)
  store i32 %18, ptr %3, align 4
  br label %19

19:                                               ; preds = %17, %15, %13, %11, %9
  %20 = load i32, ptr %3, align 4
  ret i32 %20
}