; Function Attrs: mustprogress nofree norecurse nosync nounwind willreturn memory(argmem: read) uwtable
define dso_local noundef range(i32 0, 256) i32 @_ZNK5clang10TargetInfo12getTypeWidthENS_23TransferrableTargetInfo7IntTypeE(ptr noundef nonnull readonly align 8 captures(none) dereferenceable(489) %0, i32 noundef %1) local_unnamed_addr #8 align 2 {
  switch i32 %1, label %3 [
    i32 1, label %14
    i32 2, label %14
    i32 3, label %4
    i32 4, label %4
    i32 5, label %5
    i32 6, label %5
    i32 7, label %8
    i32 8, label %8
    i32 9, label %11
    i32 10, label %11
  ]

3:                                                ; preds = %2
  unreachable

4:                                                ; preds = %2, %2
  br label %14

5:                                                ; preds = %2, %2
  %6 = getelementptr inbounds nuw i8, ptr %0, i64 12
  %7 = load i8, ptr %6, align 4
  br label %14

8:                                                ; preds = %2, %2
  %9 = getelementptr inbounds nuw i8, ptr %0, i64 28
  %10 = load i8, ptr %9, align 4
  br label %14

11:                                               ; preds = %2, %2
  %12 = getelementptr inbounds nuw i8, ptr %0, i64 30
  %13 = load i8, ptr %12, align 2
  br label %14

14:                                               ; preds = %2, %2, %11, %8, %5, %4
  %.0.shrunk = phi i8 [ %13, %11 ], [ %10, %8 ], [ %7, %5 ], [ 16, %4 ], [ 8, %2 ], [ 8, %2 ]
  %.0 = zext i8 %.0.shrunk to i32
  ret i32 %.0
}